(cnumpy.core.multiarray
scalar
p0
(cnumpy
dtype
p1
(S'f8'
p2
I0
I1
tp3
Rp4
(I3
S'<'
p5
NNNI-1
I-1
I0
tp6
bS'\xc5 \xb0\x9a\x06\xbf\x8c?'
p7
tp8
Rp9
g0
(g4
S'P\xde\xdbq\x91\xdd\xdb@'
p10
tp11
Rp12
tp13
.